(lp0
S'poi'
p1
aS'bonus'
p2
aS'exercised_stock_options'
p3
aS'total_stock_value'
p4
aS'salary'
p5
aS'fraction_to_poi'
p6
aS'shared_receipt_with_poi'
p7
aS'deferred_income'
p8
aS'long_term_incentive'
p9
a.